Certificate:
    Data:
        Version: 3 (0x2)
        Serial Number: 84 (0x54)
        Signature Algorithm: sha1WithRSAEncryption
        Issuer: C=AR, ST=CABA, L=CapitalFederal, O=Sprayette.S.A., CN=sprovs/emailAddress=servidore@sprayette.com.ar
        Validity
            Not Before: Mar 18 12:25:33 2011 GMT
            Not After : Mar 15 12:25:33 2021 GMT
        Subject: C=AR, ST=CABA, L=CapitalFederal, O=Sprayette.S.A., CN=axvpn2/emailAddress=servidore@sprayette.com.ar
        Subject Public Key Info:
            Public Key Algorithm: rsaEncryption
            RSA Public Key: (512 bit)
                Modulus (512 bit):
                    00:af:b0:35:0f:68:fb:c3:0a:99:17:b3:aa:8d:36:
                    61:7f:64:13:24:e0:c8:5c:7b:63:11:cf:97:c7:78:
                    21:f5:0f:ef:3c:cf:1c:05:f4:f4:56:fb:b0:2a:87:
                    73:0c:e0:e3:ad:26:cc:d4:5e:28:64:b3:74:42:63:
                    55:dd:56:80:ed
                Exponent: 65537 (0x10001)
        X509v3 extensions:
            X509v3 Basic Constraints: 
                CA:FALSE
            Netscape Comment: 
                Easy-RSA Generated Certificate
            X509v3 Subject Key Identifier: 
                D2:C9:DB:A1:E9:5A:EF:56:20:75:16:B1:5D:D6:68:C1:D5:C7:EE:36
            X509v3 Authority Key Identifier: 
                keyid:58:27:A9:BE:26:45:47:65:2C:C2:7B:67:A9:35:92:77:46:3F:D3:9D
                DirName:/C=AR/ST=CABA/L=CapitalFederal/O=Sprayette.S.A./CN=sprovs/emailAddress=servidore@sprayette.com.ar
                serial:F0:9A:C9:EA:A4:58:B0:FE

            X509v3 Extended Key Usage: 
                TLS Web Client Authentication
            X509v3 Key Usage: 
                Digital Signature
    Signature Algorithm: sha1WithRSAEncryption
        34:56:38:29:a5:58:be:d9:d1:a7:a1:da:f6:c0:c4:48:1c:dd:
        8a:7b:a7:50:e5:7f:1e:36:c8:6a:f9:36:4e:30:6a:7d:c4:dc:
        61:81:32:13:8e:ae:1a:17:8b:4f:77:67:81:be:25:23:3b:e9:
        e2:cb:8e:41:32:93:73:23:06:29
-----BEGIN CERTIFICATE-----
MIIDSjCCAvSgAwIBAgIBVDANBgkqhkiG9w0BAQUFADCBijELMAkGA1UEBhMCQVIx
DTALBgNVBAgTBENBQkExFzAVBgNVBAcTDkNhcGl0YWxGZWRlcmFsMRcwFQYDVQQK
Ew5TcHJheWV0dGUuUy5BLjEPMA0GA1UEAxMGc3Byb3ZzMSkwJwYJKoZIhvcNAQkB
FhpzZXJ2aWRvcmVAc3ByYXlldHRlLmNvbS5hcjAeFw0xMTAzMTgxMjI1MzNaFw0y
MTAzMTUxMjI1MzNaMIGKMQswCQYDVQQGEwJBUjENMAsGA1UECBMEQ0FCQTEXMBUG
A1UEBxMOQ2FwaXRhbEZlZGVyYWwxFzAVBgNVBAoTDlNwcmF5ZXR0ZS5TLkEuMQ8w
DQYDVQQDEwZheHZwbjIxKTAnBgkqhkiG9w0BCQEWGnNlcnZpZG9yZUBzcHJheWV0
dGUuY29tLmFyMFwwDQYJKoZIhvcNAQEBBQADSwAwSAJBAK+wNQ9o+8MKmRezqo02
YX9kEyTgyFx7YxHPl8d4IfUP7zzPHAX09Fb7sCqHcwzg460mzNReKGSzdEJjVd1W
gO0CAwEAAaOCAUEwggE9MAkGA1UdEwQCMAAwLQYJYIZIAYb4QgENBCAWHkVhc3kt
UlNBIEdlbmVyYXRlZCBDZXJ0aWZpY2F0ZTAdBgNVHQ4EFgQU0snboela71YgdRax
XdZowdXH7jYwgb8GA1UdIwSBtzCBtIAUWCepviZFR2UswntnqTWSd0Y/052hgZCk
gY0wgYoxCzAJBgNVBAYTAkFSMQ0wCwYDVQQIEwRDQUJBMRcwFQYDVQQHEw5DYXBp
dGFsRmVkZXJhbDEXMBUGA1UEChMOU3ByYXlldHRlLlMuQS4xDzANBgNVBAMTBnNw
cm92czEpMCcGCSqGSIb3DQEJARYac2Vydmlkb3JlQHNwcmF5ZXR0ZS5jb20uYXKC
CQDwmsnqpFiw/jATBgNVHSUEDDAKBggrBgEFBQcDAjALBgNVHQ8EBAMCB4AwDQYJ
KoZIhvcNAQEFBQADQQA0VjgppVi+2dGnodr2wMRIHN2Ke6dQ5X8eNshq+TZOMGp9
xNxhgTITjq4aF4tPd2eBviUjO+niy45BMpNzIwYp
-----END CERTIFICATE-----
